target datalayout = "e-m:e-p270:32:32-p271:32:32-p272:64:64-i64:64-i128:128-f80:128-n8:16:32:64-S128"
target triple = "x86_64-pc-linux-gnu"

%struct._zend_executor_globals = type { %struct._zval_struct, %struct._zval_struct, [32 x ptr], ptr, ptr, %struct._zend_array, %struct._zend_array, ptr, i32, i8, %struct._zval_struct, i32, ptr, ptr, ptr, ptr, ptr, ptr, i64, ptr, ptr, i32, ptr, i32, i64, i32, i32, i32, i8, i8, %struct.zend_atomic_bool_s, %struct.zend_atomic_bool_s, ptr, i64, ptr, ptr, %struct._zend_array, %struct._zend_array, i32, i8, %struct._zval_struct, %struct._zval_struct, %struct._zend_stack, %struct._zend_stack, %struct._zend_stack, ptr, i32, i32, i64, ptr, ptr, ptr, %struct._zend_objects_store, %struct._zend_lazy_objects_store, ptr, ptr, ptr, [3 x %struct._zend_op], ptr, i8, i8, i64, i32, i32, ptr, [16 x %struct._HashTableIterator], ptr, %union._zend_function, %struct._zend_op, %struct._zend_array, i64, %struct.zend_get_gc_buffer, ptr, ptr, ptr, i64, i8, i32, ptr, ptr, i64, %struct._zend_call_stack, i64, i64, %struct._zend_strtod_state, [6 x ptr] }
%struct.zend_atomic_bool_s = type { i8 }
%struct._zval_struct = type { %union._zend_value, %union.anon.3, %union.anon.6 }
%union._zend_value = type { i64 }
%union.anon.3 = type { i32 }
%union.anon.6 = type { i32 }
%struct._zend_stack = type { i32, i32, i32, ptr }
%struct._zend_objects_store = type { ptr, i32, i32, i32 }
%struct._zend_lazy_objects_store = type { %struct._zend_array }
%struct._HashTableIterator = type { ptr, i32, i32 }
%union._zend_function = type { %struct._zend_op_array }
%struct._zend_op_array = type { i8, [3 x i8], i32, ptr, ptr, ptr, i32, i32, ptr, ptr, ptr, ptr, i32, ptr, i32, i32, i32, ptr, ptr, ptr, ptr, ptr, i32, i32, ptr, ptr, ptr, i32, i32, i32, i32, ptr, ptr, [6 x ptr] }
%struct._zend_op = type { ptr, %union._znode_op, %union._znode_op, %union._znode_op, i32, i32, i8, i8, i8, i8 }
%union._znode_op = type { i32 }
%struct._zend_array = type { %struct._zend_refcounted_h, %union.anon.8, i32, %union.anon.10, i32, i32, i32, i32, i64, ptr }
%struct._zend_refcounted_h = type { i32, %union.anon.1 }
%union.anon.1 = type { i32 }
%union.anon.8 = type { i32 }
%union.anon.10 = type { ptr }
%struct.zend_get_gc_buffer = type { ptr, ptr, ptr }
%struct._zend_call_stack = type { ptr, i64 }
%struct._zend_strtod_state = type { [8 x ptr], ptr, ptr }
%struct._pdo_stmt_t = type { ptr, ptr, [6 x i8], i16, ptr, ptr, ptr, ptr, i32, i32, %union.anon, ptr, ptr, ptr, i64, ptr, ptr, ptr, %struct._zend_object }
%union.anon = type { %struct.anon.0 }
%struct.anon.0 = type { %struct._zend_fcall_info_cache }
%struct._zend_fcall_info_cache = type { ptr, ptr, ptr, ptr, ptr }
%struct._zend_object = type { %struct._zend_refcounted_h, i32, i32, ptr, ptr, ptr, [1 x %struct._zval_struct] }
%struct.pdo_stmt_methods = type { ptr, ptr, ptr, ptr, ptr, ptr, ptr, ptr, ptr, ptr, ptr }
%struct._zend_string = type { %struct._zend_refcounted_h, i64, i64, [1 x i8] }
%struct._zend_execute_data = type { ptr, ptr, ptr, ptr, %struct._zval_struct, ptr, ptr, ptr, ptr }
%struct._zend_class_entry = type { i8, ptr, %union.anon.7, i32, i32, i32, i32, ptr, ptr, ptr, %struct._zend_array, %struct._zend_array, %struct._zend_array, ptr, ptr, ptr, ptr, ptr, ptr, ptr, ptr, ptr, ptr, ptr, ptr, ptr, ptr, ptr, ptr, ptr, ptr, ptr, %union.anon.11, ptr, ptr, ptr, ptr, i32, i32, i32, i32, %union.anon.12, ptr, ptr, ptr, ptr, i32, ptr, ptr, %union.anon.13 }
%union.anon.7 = type { ptr }
%union.anon.11 = type { ptr }
%union.anon.12 = type { ptr }
%union.anon.13 = type { %struct.anon.14 }
%struct.anon.14 = type { ptr, i32, i32 }

@.str = private unnamed_addr constant [27 x i8] c"%s object is uninitialized\00", align 1
@executor_globals = external global %struct._zend_executor_globals, align 8
@.str.1 = private unnamed_addr constant [6 x i8] c"00000\00", align 1

; Function Attrs: inlinehint nounwind uwtable
define internal ptr @php_pdo_stmt_fetch_object(ptr noundef %0) #7 {
  %2 = alloca ptr, align 8
  store ptr %0, ptr %2, align 8, !tbaa !108
  %3 = load ptr, ptr %2, align 8, !tbaa !108
  %4 = getelementptr inbounds i8, ptr %3, i64 -160
  ret ptr %4
}

; Function Attrs: nounwind uwtable
define hidden void @zim_PDOStatement_closeCursor(ptr noundef %0, ptr noundef %1) #0 {
  %3 = alloca ptr, align 8
  %4 = alloca ptr, align 8
  %5 = alloca ptr, align 8
  %6 = alloca i32, align 4
  store ptr %0, ptr %3, align 8, !tbaa !50
  store ptr %1, ptr %4, align 8, !tbaa !47
  br label %7

7:                                                ; preds = %2
  %8 = load ptr, ptr %3, align 8, !tbaa !50
  %9 = getelementptr inbounds nuw %struct._zend_execute_data, ptr %8, i32 0, i32 4
  %10 = getelementptr inbounds nuw %struct._zval_struct, ptr %9, i32 0, i32 2
  %11 = load i32, ptr %10, align 4, !tbaa !45
  %12 = icmp ne i32 %11, 0
  %13 = xor i1 %12, true
  %14 = xor i1 %13, true
  %15 = zext i1 %14 to i32
  %16 = sext i32 %15 to i64
  %17 = call i64 @llvm.expect.i64(i64 %16, i64 0)
  %18 = icmp ne i64 %17, 0
  br i1 %18, label %19, label %20

19:                                               ; preds = %7
  call void @zend_wrong_parameters_none_error()
  br label %145

20:                                               ; preds = %7
  br label %21

21:                                               ; preds = %20
  call void @llvm.lifetime.start.p0(i64 8, ptr %5) #14
  %22 = load ptr, ptr %3, align 8, !tbaa !50
  %23 = getelementptr inbounds nuw %struct._zend_execute_data, ptr %22, i32 0, i32 4
  %24 = getelementptr inbounds nuw %struct._zval_struct, ptr %23, i32 0, i32 0
  %25 = load ptr, ptr %24, align 8, !tbaa !45
  %26 = call ptr @php_pdo_stmt_fetch_object(ptr noundef %25)
  store ptr %26, ptr %5, align 8, !tbaa !4
  %27 = load ptr, ptr %5, align 8, !tbaa !4
  %28 = getelementptr inbounds nuw %struct._pdo_stmt_t, ptr %27, i32 0, i32 12
  %29 = load ptr, ptr %28, align 8, !tbaa !30
  %30 = icmp ne ptr %29, null
  br i1 %30, label %47, label %31

31:                                               ; preds = %21
  %32 = load ptr, ptr %3, align 8, !tbaa !50
  %33 = getelementptr inbounds nuw %struct._zend_execute_data, ptr %32, i32 0, i32 4
  %34 = getelementptr inbounds nuw %struct._zval_struct, ptr %33, i32 0, i32 0
  %35 = load ptr, ptr %34, align 8, !tbaa !45
  %36 = getelementptr inbounds nuw %struct._zend_object, ptr %35, i32 0, i32 3
  %37 = load ptr, ptr %36, align 8, !tbaa !56
  %38 = getelementptr inbounds nuw %struct._zend_class_entry, ptr %37, i32 0, i32 1
  %39 = load ptr, ptr %38, align 8, !tbaa !57
  %40 = getelementptr inbounds nuw %struct._zend_string, ptr %39, i32 0, i32 3
  %41 = getelementptr inbounds [1 x i8], ptr %40, i64 0, i64 0
  call void (ptr, ptr, ...) @zend_throw_error(ptr noundef null, ptr noundef @.str, ptr noundef %41)
  br label %42

42:                                               ; preds = %31
  %43 = load ptr, ptr getelementptr inbounds nuw (%struct._zend_executor_globals, ptr @executor_globals, i32 0, i32 54), align 8, !tbaa !69
  %44 = icmp ne ptr %43, null
  call void @llvm.assume(i1 %44)
  store i32 1, ptr %6, align 4
  br label %143

45:                                               ; No predecessors!
  br label %46

46:                                               ; preds = %45
  br label %47

47:                                               ; preds = %46, %21
  %48 = load ptr, ptr %5, align 8, !tbaa !4
  %49 = getelementptr inbounds nuw %struct._pdo_stmt_t, ptr %48, i32 0, i32 0
  %50 = load ptr, ptr %49, align 8, !tbaa !27
  %51 = getelementptr inbounds nuw %struct.pdo_stmt_methods, ptr %50, i32 0, i32 10
  %52 = load ptr, ptr %51, align 8, !tbaa !159
  %53 = icmp ne ptr %52, null
  br i1 %53, label %94, label %54

54:                                               ; preds = %47
  br label %55

55:                                               ; preds = %79, %54
  br label %56

56:                                               ; preds = %65, %55
  %57 = load ptr, ptr %5, align 8, !tbaa !4
  %58 = getelementptr inbounds nuw %struct._pdo_stmt_t, ptr %57, i32 0, i32 0
  %59 = load ptr, ptr %58, align 8, !tbaa !27
  %60 = getelementptr inbounds nuw %struct.pdo_stmt_methods, ptr %59, i32 0, i32 2
  %61 = load ptr, ptr %60, align 8, !tbaa !132
  %62 = load ptr, ptr %5, align 8, !tbaa !4
  %63 = call i32 %61(ptr noundef %62, i32 noundef 0, i64 noundef 0)
  %64 = icmp ne i32 %63, 0
  br i1 %64, label %65, label %66

65:                                               ; preds = %56
  br label %56

66:                                               ; preds = %56
  %67 = load ptr, ptr %5, align 8, !tbaa !4
  %68 = getelementptr inbounds nuw %struct._pdo_stmt_t, ptr %67, i32 0, i32 0
  %69 = load ptr, ptr %68, align 8, !tbaa !27
  %70 = getelementptr inbounds nuw %struct.pdo_stmt_methods, ptr %69, i32 0, i32 9
  %71 = load ptr, ptr %70, align 8, !tbaa !158
  %72 = icmp ne ptr %71, null
  br i1 %72, label %74, label %73

73:                                               ; preds = %66
  br label %80

74:                                               ; preds = %66
  %75 = load ptr, ptr %5, align 8, !tbaa !4
  %76 = call zeroext i1 @pdo_stmt_do_next_rowset(ptr noundef %75)
  br i1 %76, label %78, label %77

77:                                               ; preds = %74
  br label %80

78:                                               ; preds = %74
  br label %79

79:                                               ; preds = %78
  br i1 true, label %55, label %80

80:                                               ; preds = %79, %77, %73
  %81 = load ptr, ptr %5, align 8, !tbaa !4
  %82 = getelementptr inbounds nuw %struct._pdo_stmt_t, ptr %81, i32 0, i32 3
  %83 = load i16, ptr %82, align 2
  %84 = and i16 %83, -2
  %85 = or i16 %84, 0
  store i16 %85, ptr %82, align 2
  br label %86

86:                                               ; preds = %80
  br label %87

87:                                               ; preds = %86
  %88 = load ptr, ptr %4, align 8, !tbaa !47
  %89 = getelementptr inbounds nuw %struct._zval_struct, ptr %88, i32 0, i32 1
  store i32 3, ptr %89, align 8, !tbaa !45
  br label %90

90:                                               ; preds = %87
  br label %91

91:                                               ; preds = %90
  store i32 1, ptr %6, align 4
  br label %143

92:                                               ; No predecessors!
  br label %93

93:                                               ; preds = %92
  br label %94

94:                                               ; preds = %93, %47
  br label %95

95:                                               ; preds = %94
  %96 = load ptr, ptr %5, align 8, !tbaa !4
  %97 = getelementptr inbounds nuw %struct._pdo_stmt_t, ptr %96, i32 0, i32 2
  %98 = getelementptr inbounds [6 x i8], ptr %97, i64 0, i64 0
  call void @llvm.memcpy.p0.p0.i64(ptr align 8 %98, ptr align 1 @.str.1, i64 6, i1 false)
  br label %99

99:                                               ; preds = %95
  br label %100

100:                                              ; preds = %99
  %101 = load ptr, ptr %5, align 8, !tbaa !4
  %102 = getelementptr inbounds nuw %struct._pdo_stmt_t, ptr %101, i32 0, i32 0
  %103 = load ptr, ptr %102, align 8, !tbaa !27
  %104 = getelementptr inbounds nuw %struct.pdo_stmt_methods, ptr %103, i32 0, i32 10
  %105 = load ptr, ptr %104, align 8, !tbaa !159
  %106 = load ptr, ptr %5, align 8, !tbaa !4
  %107 = call i32 %105(ptr noundef %106)
  %108 = icmp ne i32 %107, 0
  br i1 %108, label %129, label %109

109:                                              ; preds = %100
  %110 = load ptr, ptr %5, align 8, !tbaa !4
  %111 = getelementptr inbounds nuw %struct._pdo_stmt_t, ptr %110, i32 0, i32 2
  %112 = getelementptr inbounds [6 x i8], ptr %111, i64 0, i64 0
  %113 = call i32 @strcmp(ptr noundef %112, ptr noundef @.str.1) #16
  %114 = icmp ne i32 %113, 0
  br i1 %114, label %115, label %120

115:                                              ; preds = %109
  %116 = load ptr, ptr %5, align 8, !tbaa !4
  %117 = getelementptr inbounds nuw %struct._pdo_stmt_t, ptr %116, i32 0, i32 12
  %118 = load ptr, ptr %117, align 8, !tbaa !30
  %119 = load ptr, ptr %5, align 8, !tbaa !4
  call void @pdo_handle_error(ptr noundef %118, ptr noundef %119)
  br label %120

120:                                              ; preds = %115, %109
  br label %121

121:                                              ; preds = %120
  br label %122

122:                                              ; preds = %121
  %123 = load ptr, ptr %4, align 8, !tbaa !47
  %124 = getelementptr inbounds nuw %struct._zval_struct, ptr %123, i32 0, i32 1
  store i32 2, ptr %124, align 8, !tbaa !45
  br label %125

125:                                              ; preds = %122
  br label %126

126:                                              ; preds = %125
  store i32 1, ptr %6, align 4
  br label %143

127:                                              ; No predecessors!
  br label %128

128:                                              ; preds = %127
  br label %129

129:                                              ; preds = %128, %100
  %130 = load ptr, ptr %5, align 8, !tbaa !4
  %131 = getelementptr inbounds nuw %struct._pdo_stmt_t, ptr %130, i32 0, i32 3
  %132 = load i16, ptr %131, align 2
  %133 = and i16 %132, -2
  %134 = or i16 %133, 0
  store i16 %134, ptr %131, align 2
  br label %135

135:                                              ; preds = %129
  br label %136

136:                                              ; preds = %135
  %137 = load ptr, ptr %4, align 8, !tbaa !47
  %138 = getelementptr inbounds nuw %struct._zval_struct, ptr %137, i32 0, i32 1
  store i32 3, ptr %138, align 8, !tbaa !45
  br label %139

139:                                              ; preds = %136
  br label %140

140:                                              ; preds = %139
  store i32 1, ptr %6, align 4
  br label %143

141:                                              ; No predecessors!
  br label %142

142:                                              ; preds = %141
  store i32 0, ptr %6, align 4
  br label %143

143:                                              ; preds = %142, %140, %126, %91, %42
  call void @llvm.lifetime.end.p0(i64 8, ptr %5) #14
  %144 = load i32, ptr %6, align 4
  switch i32 %144, label %146 [
    i32 0, label %145
    i32 1, label %145
  ]

145:                                              ; preds = %19, %143, %143
  ret void

146:                                              ; preds = %143
  unreachable
}