; Function Attrs: nounwind uwtable
define hidden void @zim_PDOStatement_closeCursor(ptr noundef readonly captures(none) %0, ptr noundef writeonly captures(none) %1) #0 {
  %3 = getelementptr inbounds nuw i8, ptr %0, i64 44
  %4 = load i32, ptr %3, align 4, !tbaa !37
  %.not = icmp eq i32 %4, 0
  br i1 %.not, label %6, label %5, !prof !104

5:                                                ; preds = %2
  tail call void @zend_wrong_parameters_none_error() #17
  br label %54

6:                                                ; preds = %2
  %7 = getelementptr inbounds nuw i8, ptr %0, i64 32
  %8 = load ptr, ptr %7, align 8, !tbaa !37
  %9 = getelementptr inbounds i8, ptr %8, i64 -160
  %10 = getelementptr inbounds i8, ptr %8, i64 -48
  %11 = load ptr, ptr %10, align 8, !tbaa !27
  %.not20 = icmp eq ptr %11, null
  br i1 %.not20, label %12, label %20

12:                                               ; preds = %6
  %13 = getelementptr inbounds nuw i8, ptr %8, i64 16
  %14 = load ptr, ptr %13, align 8, !tbaa !45
  %15 = getelementptr inbounds nuw i8, ptr %14, i64 8
  %16 = load ptr, ptr %15, align 8, !tbaa !46
  %17 = getelementptr inbounds nuw i8, ptr %16, i64 24
  tail call void (ptr, ptr, ...) @zend_throw_error(ptr noundef null, ptr noundef nonnull @.str, ptr noundef nonnull %17) #17
  %18 = load ptr, ptr getelementptr inbounds nuw (i8, ptr @executor_globals, i64 960), align 8, !tbaa !59
  %19 = icmp ne ptr %18, null
  tail call void @llvm.assume(i1 %19)
  br label %54

20:                                               ; preds = %6
  %21 = load ptr, ptr %9, align 8, !tbaa !24
  %22 = getelementptr inbounds nuw i8, ptr %21, i64 80
  %23 = load ptr, ptr %22, align 8, !tbaa !147
  %.not21 = icmp eq ptr %23, null
  br i1 %.not21, label %.preheader, label %39

.preheader:                                       ; preds = %20, %.preheader.backedge
  %24 = load ptr, ptr %9, align 8, !tbaa !24
  %25 = getelementptr inbounds nuw i8, ptr %24, i64 16
  %26 = load ptr, ptr %25, align 8, !tbaa !121
  %27 = tail call i32 %26(ptr noundef nonnull %9, i32 noundef 0, i64 noundef 0) #17
  %.not22 = icmp eq i32 %27, 0
  br i1 %.not22, label %28, label %.preheader.backedge

.preheader.backedge:                              ; preds = %.preheader, %32
  br label %.preheader

28:                                               ; preds = %.preheader
  %29 = load ptr, ptr %9, align 8, !tbaa !24
  %30 = getelementptr inbounds nuw i8, ptr %29, i64 72
  %31 = load ptr, ptr %30, align 8, !tbaa !146
  %.not23 = icmp eq ptr %31, null
  br i1 %.not23, label %34, label %32

32:                                               ; preds = %28
  %33 = tail call fastcc zeroext i1 @pdo_stmt_do_next_rowset(ptr noundef nonnull %9)
  br i1 %33, label %.preheader.backedge, label %34

34:                                               ; preds = %32, %28
  %35 = getelementptr inbounds i8, ptr %8, i64 -138
  %36 = load i16, ptr %35, align 2
  %37 = and i16 %36, -2
  store i16 %37, ptr %35, align 2
  %38 = getelementptr inbounds nuw i8, ptr %1, i64 8
  store i32 3, ptr %38, align 8, !tbaa !37
  br label %54

39:                                               ; preds = %20
  %40 = getelementptr inbounds i8, ptr %8, i64 -144
  tail call void @llvm.memcpy.p0.p0.i64(ptr noundef nonnull align 8 dereferenceable(6) %40, ptr noundef nonnull align 1 dereferenceable(6) @.str.1, i64 6, i1 false)
  %41 = load ptr, ptr %22, align 8, !tbaa !147
  %42 = tail call i32 %41(ptr noundef nonnull %9) #17
  %.not24 = icmp eq i32 %42, 0
  br i1 %.not24, label %43, label %49

43:                                               ; preds = %39
  %44 = tail call i32 @strcmp(ptr noundef nonnull dereferenceable(1) %40, ptr noundef nonnull dereferenceable(6) @.str.1) #18
  %.not25 = icmp eq i32 %44, 0
  br i1 %.not25, label %47, label %45

45:                                               ; preds = %43
  %46 = load ptr, ptr %10, align 8, !tbaa !27
  tail call void @pdo_handle_error(ptr noundef %46, ptr noundef nonnull %9) #17
  br label %47

47:                                               ; preds = %45, %43
  %48 = getelementptr inbounds nuw i8, ptr %1, i64 8
  store i32 2, ptr %48, align 8, !tbaa !37
  br label %54

49:                                               ; preds = %39
  %50 = getelementptr inbounds i8, ptr %8, i64 -138
  %51 = load i16, ptr %50, align 2
  %52 = and i16 %51, -2
  store i16 %52, ptr %50, align 2
  %53 = getelementptr inbounds nuw i8, ptr %1, i64 8
  store i32 3, ptr %53, align 8, !tbaa !37
  br label %54

54:                                               ; preds = %12, %34, %47, %49, %5
  ret void
}